; ModuleID = '53/369.c'
source_filename = "53/369.c"
target datalayout = "e-m:e-p270:32:32-p271:32:32-p272:64:64-i64:64-f80:128-n8:16:32:64-S128"
target triple = "x86_64-pc-linux-gnu"

@.str = private unnamed_addr constant [3 x i8] c"%d\00", align 1
@.str.1 = private unnamed_addr constant [4 x i8] c",%d\00", align 1

; Function Attrs: noinline nounwind uwtable
define dso_local void @main() #0 {
  %1 = alloca i32, align 4
  %2 = alloca i32, align 4
  %3 = alloca i32, align 4
  %4 = alloca [301 x i32], align 16
  %5 = call i32 (i8*, ...) @__isoc99_scanf(i8* getelementptr inbounds ([3 x i8], [3 x i8]* @.str, i64 0, i64 0), i32* %1)
  store i32 1, i32* %2, align 4
  br label %6

6:                                                ; preds = %15, %0
  %7 = load i32, i32* %2, align 4
  %8 = load i32, i32* %1, align 4
  %9 = icmp sle i32 %7, %8
  br i1 %9, label %10, label %18

10:                                               ; preds = %6
  %11 = load i32, i32* %2, align 4
  %12 = sext i32 %11 to i64
  %13 = getelementptr inbounds [301 x i32], [301 x i32]* %4, i64 0, i64 %12
  %14 = call i32 (i8*, ...) @__isoc99_scanf(i8* getelementptr inbounds ([3 x i8], [3 x i8]* @.str, i64 0, i64 0), i32* %13)
  br label %15

15:                                               ; preds = %10
  %16 = load i32, i32* %2, align 4
  %17 = add nsw i32 %16, 1
  store i32 %17, i32* %2, align 4
  br label %6

18:                                               ; preds = %6
  store i32 1, i32* %2, align 4
  br label %19

19:                                               ; preds = %57, %18
  %20 = load i32, i32* %2, align 4
  %21 = load i32, i32* %1, align 4
  %22 = sub nsw i32 %21, 1
  %23 = icmp sle i32 %20, %22
  br i1 %23, label %24, label %60

24:                                               ; preds = %19
  %25 = load i32, i32* %2, align 4
  %26 = add nsw i32 %25, 1
  store i32 %26, i32* %3, align 4
  br label %27

27:                                               ; preds = %53, %24
  %28 = load i32, i32* %3, align 4
  %29 = load i32, i32* %1, align 4
  %30 = icmp sle i32 %28, %29
  br i1 %30, label %31, label %56

31:                                               ; preds = %27
  %32 = load i32, i32* %3, align 4
  %33 = sext i32 %32 to i64
  %34 = getelementptr inbounds [301 x i32], [301 x i32]* %4, i64 0, i64 %33
  %35 = load i32, i32* %34, align 4
  %36 = icmp ne i32 %35, 0
  br i1 %36, label %37, label %52

37:                                               ; preds = %31
  %38 = load i32, i32* %3, align 4
  %39 = sext i32 %38 to i64
  %40 = getelementptr inbounds [301 x i32], [301 x i32]* %4, i64 0, i64 %39
  %41 = load i32, i32* %40, align 4
  %42 = load i32, i32* %2, align 4
  %43 = sext i32 %42 to i64
  %44 = getelementptr inbounds [301 x i32], [301 x i32]* %4, i64 0, i64 %43
  %45 = load i32, i32* %44, align 4
  %46 = icmp eq i32 %41, %45
  br i1 %46, label %47, label %51

47:                                               ; preds = %37
  %48 = load i32, i32* %3, align 4
  %49 = sext i32 %48 to i64
  %50 = getelementptr inbounds [301 x i32], [301 x i32]* %4, i64 0, i64 %49
  store i32 0, i32* %50, align 4
  br label %51

51:                                               ; preds = %47, %37
  br label %52

52:                                               ; preds = %51, %31
  br label %53

53:                                               ; preds = %52
  %54 = load i32, i32* %3, align 4
  %55 = add nsw i32 %54, 1
  store i32 %55, i32* %3, align 4
  br label %27

56:                                               ; preds = %27
  br label %57

57:                                               ; preds = %56
  %58 = load i32, i32* %2, align 4
  %59 = add nsw i32 %58, 1
  store i32 %59, i32* %2, align 4
  br label %19

60:                                               ; preds = %19
  %61 = getelementptr inbounds [301 x i32], [301 x i32]* %4, i64 0, i64 1
  %62 = load i32, i32* %61, align 4
  %63 = call i32 (i8*, ...) @printf(i8* getelementptr inbounds ([3 x i8], [3 x i8]* @.str, i64 0, i64 0), i32 %62)
  store i32 2, i32* %2, align 4
  br label %64

64:                                               ; preds = %81, %60
  %65 = load i32, i32* %2, align 4
  %66 = load i32, i32* %1, align 4
  %67 = icmp sle i32 %65, %66
  br i1 %67, label %68, label %84

68:                                               ; preds = %64
  %69 = load i32, i32* %2, align 4
  %70 = sext i32 %69 to i64
  %71 = getelementptr inbounds [301 x i32], [301 x i32]* %4, i64 0, i64 %70
  %72 = load i32, i32* %71, align 4
  %73 = icmp ne i32 %72, 0
  br i1 %73, label %74, label %80

74:                                               ; preds = %68
  %75 = load i32, i32* %2, align 4
  %76 = sext i32 %75 to i64
  %77 = getelementptr inbounds [301 x i32], [301 x i32]* %4, i64 0, i64 %76
  %78 = load i32, i32* %77, align 4
  %79 = call i32 (i8*, ...) @printf(i8* getelementptr inbounds ([4 x i8], [4 x i8]* @.str.1, i64 0, i64 0), i32 %78)
  br label %80

80:                                               ; preds = %74, %68
  br label %81

81:                                               ; preds = %80
  %82 = load i32, i32* %2, align 4
  %83 = add nsw i32 %82, 1
  store i32 %83, i32* %2, align 4
  br label %64

84:                                               ; preds = %64
  ret void
}

declare dso_local i32 @__isoc99_scanf(i8*, ...) #1

declare dso_local i32 @printf(i8*, ...) #1


!llvm.module.flags = !{!0}
!llvm.ident = !{!1}

!0 = !{i32 1, !"wchar_size", i32 4}
!1 = !{!"clang version 10.0.0-4ubuntu1 "}
